; Function Attrs: nounwind uwtable
define noalias nonnull ptr @l_Lean_instInhabitedScopedEnvExtension___rarg(ptr noundef %0, ptr readnone captures(none) %1, ptr readnone captures(none) %2) #2 {
  tail call void @lean_inc_heartbeat() #7
  %4 = tail call noalias ptr @mi_malloc_small(i64 noundef 32) #7
  %5 = icmp eq ptr %4, null
  br i1 %5, label %6, label %lean_alloc_closure.exit

6:                                                ; preds = %3
  tail call void @lean_internal_panic_out_of_memory() #8
  unreachable

lean_alloc_closure.exit:                          ; preds = %3
  %7 = getelementptr inbounds nuw i8, ptr %4, i64 4
  store i32 1, ptr %4, align 4, !tbaa !4
  store i32 -184549344, ptr %7, align 4
  %8 = getelementptr inbounds nuw i8, ptr %4, i64 8
  store ptr @l_Lean_ScopedEnvExtension_instInhabitedDescr___rarg___lambda__3___boxed, ptr %8, align 8, !tbaa !9
  %9 = getelementptr inbounds nuw i8, ptr %4, i64 16
  store i16 2, ptr %9, align 8, !tbaa !14
  %10 = getelementptr inbounds nuw i8, ptr %4, i64 18
  store i16 1, ptr %10, align 2, !tbaa !14
  %11 = getelementptr inbounds nuw i8, ptr %4, i64 24
  store ptr %0, ptr %11, align 8, !tbaa !9
  %12 = load ptr, ptr @l_Lean_ScopedEnvExtension_instInhabitedDescr___rarg___closed__1, align 8, !tbaa !9
  %13 = load ptr, ptr @l_Lean_ScopedEnvExtension_instInhabitedDescr___rarg___closed__2, align 8, !tbaa !9
  %14 = load ptr, ptr @l_Lean_ScopedEnvExtension_instInhabitedDescr___rarg___closed__3, align 8, !tbaa !9
  %15 = load ptr, ptr @l_Lean_ScopedEnvExtension_instInhabitedDescr___rarg___closed__4, align 8, !tbaa !9
  tail call void @lean_inc_heartbeat() #7
  %16 = tail call noalias ptr @mi_malloc_small(i64 noundef 56) #7
  %17 = icmp eq ptr %16, null
  br i1 %17, label %18, label %lean_alloc_ctor.exit

18:                                               ; preds = %lean_alloc_closure.exit
  tail call void @lean_internal_panic_out_of_memory() #8
  unreachable

lean_alloc_ctor.exit:                             ; preds = %lean_alloc_closure.exit
  %19 = getelementptr inbounds nuw i8, ptr %16, i64 4
  store i32 1, ptr %16, align 4, !tbaa !4
  store i32 393272, ptr %19, align 4
  %20 = getelementptr inbounds nuw i8, ptr %16, i64 8
  store ptr inttoptr (i64 1 to ptr), ptr %20, align 8, !tbaa !9
  %21 = getelementptr inbounds nuw i8, ptr %16, i64 16
  store ptr %12, ptr %21, align 8, !tbaa !9
  %22 = getelementptr inbounds nuw i8, ptr %16, i64 24
  store ptr %13, ptr %22, align 8, !tbaa !9
  %23 = getelementptr inbounds nuw i8, ptr %16, i64 32
  store ptr %4, ptr %23, align 8, !tbaa !9
  %24 = getelementptr inbounds nuw i8, ptr %16, i64 40
  store ptr %14, ptr %24, align 8, !tbaa !9
  %25 = getelementptr inbounds nuw i8, ptr %16, i64 48
  store ptr %15, ptr %25, align 8, !tbaa !9
  %26 = load ptr, ptr @l_Lean_instInhabitedScopedEnvExtension___rarg___closed__5, align 8, !tbaa !9
  tail call void @lean_inc_heartbeat() #7
  %27 = tail call noalias ptr @mi_malloc_small(i64 noundef 24) #7
  %28 = icmp eq ptr %27, null
  br i1 %28, label %29, label %lean_alloc_ctor.exit19

29:                                               ; preds = %lean_alloc_ctor.exit
  tail call void @lean_internal_panic_out_of_memory() #8
  unreachable

lean_alloc_ctor.exit19:                           ; preds = %lean_alloc_ctor.exit
  %30 = getelementptr inbounds nuw i8, ptr %27, i64 4
  store i32 1, ptr %27, align 4, !tbaa !4
  store i32 131096, ptr %30, align 4
  %31 = getelementptr inbounds nuw i8, ptr %27, i64 8
  store ptr %16, ptr %31, align 8, !tbaa !9
  %32 = getelementptr inbounds nuw i8, ptr %27, i64 16
  store ptr %26, ptr %32, align 8, !tbaa !9
  ret ptr %27
}